ccopy_reg
_reconstructor
p0
(cpciedevsettings
PCIESettings
p1
c__builtin__
object
p2
Ntp3
Rp4
(dp5
S'ch2shift'
p6
I0
sS'framelength'
p7
I65520
sS'ch2amp'
p8
I0
sS'ch1shift'
p9
I255
sS'ch1amp'
p10
I255
sS'framecount'
p11
I600
sS'channel'
p12
I01
sS'ch2count'
p13
I1
sS'ch1count'
p14
I99
sb.